; Function Attrs: mustprogress nounwind uwtable
define dso_local void @_ZN4llvm10DISubrangeC2ERNS_11LLVMContextENS_8Metadata11StorageTypeENS_8ArrayRefIPS3_EE(ptr noundef nonnull align 8 dereferenceable(16) %0, ptr noundef nonnull align 8 dereferenceable(8) %1, i32 noundef %2, ptr %3, i64 %4) unnamed_addr #0 align 2 {
  %6 = alloca %"class.llvm::ArrayRef", align 8
  call void @llvm.lifetime.start.p0(i64 16, ptr nonnull %6)
  call void @llvm.memset.p0.i64(ptr noundef nonnull align 8 dereferenceable(16) %6, i8 0, i64 16, i1 false)
  tail call void @_ZN4llvm6MDNodeC2ERNS_11LLVMContextEjNS_8Metadata11StorageTypeENS_8ArrayRefIPS3_EES7_(ptr noundef nonnull align 8 dereferenceable(16) %0, ptr noundef nonnull align 8 dereferenceable(8) %1, i32 noundef 10, i32 noundef %2, ptr %3, i64 %4, ptr noundef nonnull byval(%"class.llvm::ArrayRef") align 8 %6) #24
  %7 = getelementptr inbounds nuw i8, ptr %0, i64 2
  store i16 33, ptr %7, align 2
  call void @llvm.lifetime.end.p0(i64 16, ptr nonnull %6)
  ret void
}